; Function Attrs: mustprogress uwtable
define void @_ZN2cv3dnn14dnn4_v202412235Layer7forwardERKNS_11_InputArrayERKNS_12_OutputArrayES8_(ptr noundef nonnull align 8 dereferenceable(100) %0, ptr noundef nonnull align 8 dereferenceable(24) %1, ptr noundef nonnull align 8 dereferenceable(24) %2, ptr noundef nonnull align 8 dereferenceable(24) %3) unnamed_addr #3 align 2 personality ptr @__gxx_personality_v0 {
  %5 = alloca %"class.cv::utils::trace::details::Region", align 8
  call void @llvm.lifetime.start.p0(i64 16, ptr nonnull %5) #23
  call void @_ZN2cv5utils5trace7details6RegionC1ERKNS3_21LocationStaticStorageE(ptr noundef nonnull align 8 dereferenceable(12) %5, ptr noundef nonnull align 8 dereferenceable(32) @_ZZN2cv3dnn14dnn4_v202412235Layer7forwardERKNS_11_InputArrayERKNS_12_OutputArrayES8_E25__cv_trace_location_fn168)
  %6 = load ptr, ptr %5, align 8, !tbaa !84
  %.not = icmp eq ptr %6, null
  br i1 %.not, label %12, label %7

7:                                                ; preds = %4
  %8 = getelementptr inbounds nuw i8, ptr %0, i64 32
  %9 = load ptr, ptr %8, align 8, !tbaa !24
  invoke void @_ZN2cv5utils5trace7details8traceArgERKNS2_8TraceArgEPKc(ptr noundef nonnull align 8 dereferenceable(24) @_ZZN2cv3dnn14dnn4_v202412235Layer7forwardERKNS_11_InputArrayERKNS_12_OutputArrayES8_E22__cv_trace_arg_name169, ptr noundef %9)
          to label %12 unwind label %10

10:                                               ; preds = %12, %7
  %11 = landingpad { ptr, i32 }
          cleanup
  call void @_ZN2cv5utils5trace7details6RegionD2Ev(ptr noundef nonnull align 8 dereferenceable(12) %5) #23
  call void @llvm.lifetime.end.p0(i64 16, ptr nonnull %5) #23
  resume { ptr, i32 } %11

12:                                               ; preds = %7, %4
  invoke void @_ZN2cv3dnn14dnn4_v202412235Layer16forward_fallbackERKNS_11_InputArrayERKNS_12_OutputArrayES8_(ptr noundef nonnull align 8 dereferenceable(100) %0, ptr noundef nonnull align 8 dereferenceable(24) %1, ptr noundef nonnull align 8 dereferenceable(24) %2, ptr noundef nonnull align 8 dereferenceable(24) %3)
          to label %13 unwind label %10

13:                                               ; preds = %12
  %14 = getelementptr inbounds nuw i8, ptr %5, i64 8
  %15 = load i32, ptr %14, align 8, !tbaa !74
  %.not.i = icmp eq i32 %15, 0
  br i1 %.not.i, label %_ZN2cv5utils5trace7details6RegionD2Ev.exit, label %16

16:                                               ; preds = %13
  invoke void @_ZN2cv5utils5trace7details6Region7destroyEv(ptr noundef nonnull align 8 dereferenceable(12) %5)
          to label %_ZN2cv5utils5trace7details6RegionD2Ev.exit unwind label %17

17:                                               ; preds = %16
  %18 = landingpad { ptr, i32 }
          catch ptr null
  %19 = extractvalue { ptr, i32 } %18, 0
  call void @__clang_call_terminate(ptr %19) #27
  unreachable

_ZN2cv5utils5trace7details6RegionD2Ev.exit:       ; preds = %13, %16
  call void @llvm.lifetime.end.p0(i64 16, ptr nonnull %5) #23
  ret void
}